target datalayout = "e-m:e-p270:32:32-p271:32:32-p272:64:64-i64:64-i128:128-f80:128-n8:16:32:64-S128"
target triple = "x86_64-pc-linux-gnu"

%"class.cvc5::internal::TypeNode" = type { ptr }

; Function Attrs: mustprogress uwtable
define linkonce_odr hidden void @_ZN4cvc58internal4expr9NodeValue3incEv(ptr noundef nonnull align 8 dereferenceable(24) %0) #4 comdat align 2 {
  %2 = alloca ptr, align 8
  store ptr %0, ptr %2, align 8, !tbaa !171
  %3 = load ptr, ptr %2, align 8
  %4 = load i64, ptr %3, align 8
  %5 = lshr i64 %4, 40
  %6 = and i64 %5, 1048575
  %7 = trunc i64 %6 to i32
  %8 = icmp ult i32 %7, 1048574
  %9 = zext i1 %8 to i64
  %10 = call i64 @llvm.expect.i64(i64 %9, i64 1)
  %11 = icmp ne i64 %10, 0
  br i1 %11, label %12, label %24

12:                                               ; preds = %1
  %13 = load i64, ptr %3, align 8
  %14 = lshr i64 %13, 40
  %15 = and i64 %14, 1048575
  %16 = trunc i64 %15 to i32
  %17 = add i32 %16, 1
  %18 = zext i32 %17 to i64
  %19 = load i64, ptr %3, align 8
  %20 = and i64 %18, 1048575
  %21 = shl i64 %20, 40
  %22 = and i64 %19, -1152920405095219201
  %23 = or i64 %22, %21
  store i64 %23, ptr %3, align 8
  br label %46

24:                                               ; preds = %1
  %25 = load i64, ptr %3, align 8
  %26 = lshr i64 %25, 40
  %27 = and i64 %26, 1048575
  %28 = trunc i64 %27 to i32
  %29 = icmp eq i32 %28, 1048574
  %30 = zext i1 %29 to i64
  %31 = call i64 @llvm.expect.i64(i64 %30, i64 0)
  %32 = icmp ne i64 %31, 0
  br i1 %32, label %33, label %45

33:                                               ; preds = %24
  %34 = load i64, ptr %3, align 8
  %35 = lshr i64 %34, 40
  %36 = and i64 %35, 1048575
  %37 = trunc i64 %36 to i32
  %38 = add i32 %37, 1
  %39 = zext i32 %38 to i64
  %40 = load i64, ptr %3, align 8
  %41 = and i64 %39, 1048575
  %42 = shl i64 %41, 40
  %43 = and i64 %40, -1152920405095219201
  %44 = or i64 %43, %42
  store i64 %44, ptr %3, align 8
  call void @_ZN4cvc58internal4expr9NodeValue20markRefCountMaxedOutEv(ptr noundef nonnull align 8 dereferenceable(24) %3)
  br label %45

45:                                               ; preds = %33, %24
  br label %46

46:                                               ; preds = %45, %12
  ret void
}

; Function Attrs: inlinehint mustprogress uwtable
define linkonce_odr hidden void @_ZN4cvc58internal8TypeNodeC2ERKS1_(ptr noundef nonnull align 8 dereferenceable(8) %0, ptr noundef nonnull align 8 dereferenceable(8) %1) unnamed_addr #8 comdat align 2 {
  %3 = alloca ptr, align 8
  %4 = alloca ptr, align 8
  store ptr %0, ptr %3, align 8, !tbaa !72
  store ptr %1, ptr %4, align 8, !tbaa !72
  %5 = load ptr, ptr %3, align 8
  %6 = load ptr, ptr %4, align 8, !tbaa !72
  %7 = getelementptr inbounds nuw %"class.cvc5::internal::TypeNode", ptr %6, i32 0, i32 0
  %8 = load ptr, ptr %7, align 8, !tbaa !73
  %9 = getelementptr inbounds nuw %"class.cvc5::internal::TypeNode", ptr %5, i32 0, i32 0
  store ptr %8, ptr %9, align 8, !tbaa !73
  %10 = getelementptr inbounds nuw %"class.cvc5::internal::TypeNode", ptr %5, i32 0, i32 0
  %11 = load ptr, ptr %10, align 8, !tbaa !73
  call void @_ZN4cvc58internal4expr9NodeValue3incEv(ptr noundef nonnull align 8 dereferenceable(24) %11)
  ret void
}

; Function Attrs: mustprogress uwtable
define hidden noundef zeroext i1 @_ZNK4cvc58internal5DType8isFiniteENS0_8TypeNodeEb(ptr noundef nonnull align 8 dereferenceable(448) %0, ptr noundef %1, i1 noundef zeroext %2) #4 align 2 personality ptr @__gxx_personality_v0 {
  %4 = alloca ptr, align 8
  %5 = alloca ptr, align 8
  %6 = alloca i8, align 1
  %7 = alloca %"class.cvc5::internal::TypeNode", align 8
  %8 = alloca ptr, align 8
  %9 = alloca i32, align 4
  store ptr %0, ptr %4, align 8, !tbaa !3
  store ptr %1, ptr %5, align 8, !tbaa !72
  %10 = zext i1 %2 to i8
  store i8 %10, ptr %6, align 1, !tbaa !10
  %11 = load ptr, ptr %4, align 8
  call void @_ZN4cvc58internal8TypeNodeC2ERKS1_(ptr noundef nonnull align 8 dereferenceable(8) %7, ptr noundef nonnull align 8 dereferenceable(8) %1)
  %12 = invoke noundef i64 @_ZNK4cvc58internal5DType19getCardinalityClassENS0_8TypeNodeE(ptr noundef nonnull align 8 dereferenceable(448) %11, ptr noundef %7)
          to label %13 unwind label %18

13:                                               ; preds = %3
  %14 = load i8, ptr %6, align 1, !tbaa !10, !range !12, !noundef !13
  %15 = trunc i8 %14 to i1
  %16 = invoke noundef zeroext i1 @_ZN4cvc58internal24isCardinalityClassFiniteENS0_16CardinalityClassEb(i64 noundef %12, i1 noundef zeroext %15)
          to label %17 unwind label %18

17:                                               ; preds = %13
  call void @_ZN4cvc58internal8TypeNodeD2Ev(ptr noundef nonnull align 8 dereferenceable(8) %7) #3
  ret i1 %16

18:                                               ; preds = %13, %3
  %19 = landingpad { ptr, i32 }
          cleanup
  %20 = extractvalue { ptr, i32 } %19, 0
  store ptr %20, ptr %8, align 8
  %21 = extractvalue { ptr, i32 } %19, 1
  store i32 %21, ptr %9, align 4
  call void @_ZN4cvc58internal8TypeNodeD2Ev(ptr noundef nonnull align 8 dereferenceable(8) %7) #3
  br label %22

22:                                               ; preds = %18
  %23 = load ptr, ptr %8, align 8
  %24 = load i32, ptr %9, align 4
  %25 = insertvalue { ptr, i32 } poison, ptr %23, 0
  %26 = insertvalue { ptr, i32 } %25, i32 %24, 1
  resume { ptr, i32 } %26
}